target datalayout = "e-m:e-p270:32:32-p271:32:32-p272:64:64-i64:64-i128:128-f80:128-n8:16:32:64-S128"
target triple = "x86_64-pc-linux-gnu"

%struct.evp_cipher_ctx_st = type { ptr, ptr, ptr, i32, i32, i32, [16 x i8], [16 x i8], [32 x i8], i32, i32, i32, i32, [32 x i8] }
%struct.evp_cipher_st = type { i32, i32, i32, i32, i32, i32, ptr, ptr, ptr, ptr, ptr }

@.str = private unnamed_addr constant [126 x i8] c"generated/home/dtcxzyw/WorkSpace/Projects/compilers/llvm-opt-benchmark/bench/libquic/libquic/boringssl/crypto/cipher/cipher.c\00", align 1

; Function Attrs: nounwind uwtable
define hidden i32 @EVP_CIPHER_CTX_set_key_length(ptr noundef %0, i32 noundef %1) #0 {
  %3 = alloca i32, align 4
  %4 = alloca ptr, align 8
  %5 = alloca i32, align 4
  store ptr %0, ptr %4, align 8, !tbaa !10
  store i32 %1, ptr %5, align 4, !tbaa !6
  %6 = load ptr, ptr %4, align 8, !tbaa !10
  %7 = getelementptr inbounds nuw %struct.evp_cipher_ctx_st, ptr %6, i32 0, i32 3
  %8 = load i32, ptr %7, align 8, !tbaa !29
  %9 = load i32, ptr %5, align 4, !tbaa !6
  %10 = icmp eq i32 %8, %9
  br i1 %10, label %11, label %12

11:                                               ; preds = %2
  store i32 1, ptr %3, align 4
  br label %28

12:                                               ; preds = %2
  %13 = load i32, ptr %5, align 4, !tbaa !6
  %14 = icmp eq i32 %13, 0
  br i1 %14, label %23, label %15

15:                                               ; preds = %12
  %16 = load ptr, ptr %4, align 8, !tbaa !10
  %17 = getelementptr inbounds nuw %struct.evp_cipher_ctx_st, ptr %16, i32 0, i32 0
  %18 = load ptr, ptr %17, align 8, !tbaa !13
  %19 = getelementptr inbounds nuw %struct.evp_cipher_st, ptr %18, i32 0, i32 5
  %20 = load i32, ptr %19, align 4, !tbaa !20
  %21 = and i32 %20, 64
  %22 = icmp ne i32 %21, 0
  br i1 %22, label %24, label %23

23:                                               ; preds = %15, %12
  call void @ERR_put_error(i32 noundef 30, i32 noundef 0, i32 noundef 110, ptr noundef @.str, i32 noundef 577)
  store i32 0, ptr %3, align 4
  br label %28

24:                                               ; preds = %15
  %25 = load i32, ptr %5, align 4, !tbaa !6
  %26 = load ptr, ptr %4, align 8, !tbaa !10
  %27 = getelementptr inbounds nuw %struct.evp_cipher_ctx_st, ptr %26, i32 0, i32 3
  store i32 %25, ptr %27, align 8, !tbaa !29
  store i32 1, ptr %3, align 4
  br label %28

28:                                               ; preds = %24, %23, %11
  %29 = load i32, ptr %3, align 4
  ret i32 %29
}