; Function Attrs: nounwind uwtable
define hidden range(i32 0, 2) i32 @EVP_CIPHER_CTX_set_key_length(ptr noundef captures(none) %0, i32 noundef %1) local_unnamed_addr #0 {
  %3 = getelementptr inbounds nuw i8, ptr %0, i64 24
  %4 = load i32, ptr %3, align 8, !tbaa !21
  %5 = icmp eq i32 %4, %1
  br i1 %5, label %15, label %6

6:                                                ; preds = %2
  %7 = icmp eq i32 %1, 0
  br i1 %7, label %13, label %8

8:                                                ; preds = %6
  %9 = load ptr, ptr %0, align 8, !tbaa !6
  %10 = getelementptr inbounds nuw i8, ptr %9, i64 20
  %11 = load i32, ptr %10, align 4, !tbaa !17
  %12 = and i32 %11, 64
  %.not = icmp eq i32 %12, 0
  br i1 %.not, label %13, label %14

13:                                               ; preds = %8, %6
  tail call void @ERR_put_error(i32 noundef 30, i32 noundef 0, i32 noundef 110, ptr noundef nonnull @.str, i32 noundef 577) #14
  br label %15

14:                                               ; preds = %8
  store i32 %1, ptr %3, align 8, !tbaa !21
  br label %15

15:                                               ; preds = %2, %14, %13
  %.0 = phi i32 [ 0, %13 ], [ 1, %14 ], [ 1, %2 ]
  ret i32 %.0
}